target datalayout = "e-m:e-p270:32:32-p271:32:32-p272:64:64-i64:64-i128:128-f80:128-n8:16:32:64-S128"
target triple = "x86_64-pc-linux-gnu"

%struct.archive_entry = type { ptr, ptr, i32, %struct.aest, i32, %struct.archive_mstring, i64, i64, %struct.archive_mstring, %struct.archive_mstring, %struct.archive_mstring, %struct.archive_mstring, %struct.archive_mstring, i8, ptr, i64, %struct.ae_digest, %struct.archive_acl, ptr, ptr, ptr, ptr, ptr, [12 x i8], i32 }
%struct.aest = type { i64, i32, i64, i32, i64, i32, i64, i32, i64, i64, i32, i64, i64, i32, i64, i64, i64, i32, i64, i64, i64 }
%struct.archive_mstring = type { %struct.archive_string, %struct.archive_string, %struct.archive_wstring, %struct.archive_string, i32 }
%struct.archive_wstring = type { ptr, i64, i64 }
%struct.archive_string = type { ptr, i64, i64 }
%struct.ae_digest = type { [16 x i8], [20 x i8], [20 x i8], [32 x i8], [48 x i8], [64 x i8] }
%struct.archive_acl = type { i32, ptr, ptr, i32, ptr, ptr, i32 }
%struct.ae_xattr = type { ptr, ptr, ptr, i64 }
%struct.ae_sparse = type { ptr, i64, i64 }

; Function Attrs: nounwind uwtable
define dso_local void @archive_entry_copy_mac_metadata(ptr noundef %0, ptr noundef %1, i64 noundef %2) #0 {
  %4 = alloca ptr, align 8
  %5 = alloca ptr, align 8
  %6 = alloca i64, align 8
  store ptr %0, ptr %4, align 8, !tbaa !4
  store ptr %1, ptr %5, align 8, !tbaa !26
  store i64 %2, ptr %6, align 8, !tbaa !27
  %7 = load ptr, ptr %4, align 8, !tbaa !4
  %8 = getelementptr inbounds nuw %struct.archive_entry, ptr %7, i32 0, i32 14
  %9 = load ptr, ptr %8, align 8, !tbaa !28
  call void @free(ptr noundef %9) #13
  %10 = load ptr, ptr %5, align 8, !tbaa !26
  %11 = icmp eq ptr %10, null
  br i1 %11, label %15, label %12

12:                                               ; preds = %3
  %13 = load i64, ptr %6, align 8, !tbaa !27
  %14 = icmp eq i64 %13, 0
  br i1 %14, label %15, label %20

15:                                               ; preds = %12, %3
  %16 = load ptr, ptr %4, align 8, !tbaa !4
  %17 = getelementptr inbounds nuw %struct.archive_entry, ptr %16, i32 0, i32 14
  store ptr null, ptr %17, align 8, !tbaa !28
  %18 = load ptr, ptr %4, align 8, !tbaa !4
  %19 = getelementptr inbounds nuw %struct.archive_entry, ptr %18, i32 0, i32 15
  store i64 0, ptr %19, align 8, !tbaa !29
  br label %39

20:                                               ; preds = %12
  %21 = load i64, ptr %6, align 8, !tbaa !27
  %22 = load ptr, ptr %4, align 8, !tbaa !4
  %23 = getelementptr inbounds nuw %struct.archive_entry, ptr %22, i32 0, i32 15
  store i64 %21, ptr %23, align 8, !tbaa !29
  %24 = load i64, ptr %6, align 8, !tbaa !27
  %25 = call noalias ptr @malloc(i64 noundef %24) #14
  %26 = load ptr, ptr %4, align 8, !tbaa !4
  %27 = getelementptr inbounds nuw %struct.archive_entry, ptr %26, i32 0, i32 14
  store ptr %25, ptr %27, align 8, !tbaa !28
  %28 = load ptr, ptr %4, align 8, !tbaa !4
  %29 = getelementptr inbounds nuw %struct.archive_entry, ptr %28, i32 0, i32 14
  %30 = load ptr, ptr %29, align 8, !tbaa !28
  %31 = icmp eq ptr %30, null
  br i1 %31, label %32, label %33

32:                                               ; preds = %20
  call void @abort() #15
  unreachable

33:                                               ; preds = %20
  %34 = load ptr, ptr %4, align 8, !tbaa !4
  %35 = getelementptr inbounds nuw %struct.archive_entry, ptr %34, i32 0, i32 14
  %36 = load ptr, ptr %35, align 8, !tbaa !28
  %37 = load ptr, ptr %5, align 8, !tbaa !26
  %38 = load i64, ptr %6, align 8, !tbaa !27
  call void @llvm.memcpy.p0.p0.i64(ptr align 1 %36, ptr align 1 %37, i64 %38, i1 false)
  br label %39

39:                                               ; preds = %33, %15
  ret void
}

; Function Attrs: nounwind uwtable
define dso_local ptr @archive_entry_mac_metadata(ptr noundef %0, ptr noundef %1) #0 {
  %3 = alloca ptr, align 8
  %4 = alloca ptr, align 8
  store ptr %0, ptr %3, align 8, !tbaa !4
  store ptr %1, ptr %4, align 8, !tbaa !54
  %5 = load ptr, ptr %3, align 8, !tbaa !4
  %6 = getelementptr inbounds nuw %struct.archive_entry, ptr %5, i32 0, i32 15
  %7 = load i64, ptr %6, align 8, !tbaa !29
  %8 = load ptr, ptr %4, align 8, !tbaa !54
  store i64 %7, ptr %8, align 8, !tbaa !27
  %9 = load ptr, ptr %3, align 8, !tbaa !4
  %10 = getelementptr inbounds nuw %struct.archive_entry, ptr %9, i32 0, i32 14
  %11 = load ptr, ptr %10, align 8, !tbaa !28
  ret ptr %11
}

; Function Attrs: nounwind uwtable
define dso_local ptr @archive_entry_new2(ptr noundef %0) #0 {
  %2 = alloca ptr, align 8
  %3 = alloca ptr, align 8
  %4 = alloca ptr, align 8
  %5 = alloca i32, align 4
  store ptr %0, ptr %3, align 8, !tbaa !53
  call void @llvm.lifetime.start.p0(i64 8, ptr %4) #13
  %6 = call noalias ptr @calloc(i64 noundef 1, i64 noundef 1176) #16
  store ptr %6, ptr %4, align 8, !tbaa !4
  %7 = load ptr, ptr %4, align 8, !tbaa !4
  %8 = icmp eq ptr %7, null
  br i1 %8, label %9, label %10

9:                                                ; preds = %1
  store ptr null, ptr %2, align 8
  store i32 1, ptr %5, align 4
  br label %17

10:                                               ; preds = %1
  %11 = load ptr, ptr %3, align 8, !tbaa !53
  %12 = load ptr, ptr %4, align 8, !tbaa !4
  %13 = getelementptr inbounds nuw %struct.archive_entry, ptr %12, i32 0, i32 0
  store ptr %11, ptr %13, align 8, !tbaa !30
  %14 = load ptr, ptr %4, align 8, !tbaa !4
  %15 = getelementptr inbounds nuw %struct.archive_entry, ptr %14, i32 0, i32 24
  store i32 0, ptr %15, align 4, !tbaa !25
  %16 = load ptr, ptr %4, align 8, !tbaa !4
  store ptr %16, ptr %2, align 8
  store i32 1, ptr %5, align 4
  br label %17

17:                                               ; preds = %10, %9
  call void @llvm.lifetime.end.p0(i64 8, ptr %4) #13
  %18 = load ptr, ptr %2, align 8
  ret ptr %18
}

; Function Attrs: nounwind uwtable
define dso_local ptr @archive_entry_clone(ptr noundef %0) #0 {
  %2 = alloca ptr, align 8
  %3 = alloca ptr, align 8
  %4 = alloca ptr, align 8
  %5 = alloca ptr, align 8
  %6 = alloca ptr, align 8
  %7 = alloca i64, align 8
  %8 = alloca ptr, align 8
  %9 = alloca i32, align 4
  store ptr %0, ptr %3, align 8, !tbaa !4
  call void @llvm.lifetime.start.p0(i64 8, ptr %4) #13
  call void @llvm.lifetime.start.p0(i64 8, ptr %5) #13
  call void @llvm.lifetime.start.p0(i64 8, ptr %6) #13
  call void @llvm.lifetime.start.p0(i64 8, ptr %7) #13
  call void @llvm.lifetime.start.p0(i64 8, ptr %8) #13
  %10 = load ptr, ptr %3, align 8, !tbaa !4
  %11 = getelementptr inbounds nuw %struct.archive_entry, ptr %10, i32 0, i32 0
  %12 = load ptr, ptr %11, align 8, !tbaa !30
  %13 = call ptr @archive_entry_new2(ptr noundef %12)
  store ptr %13, ptr %4, align 8, !tbaa !4
  %14 = load ptr, ptr %4, align 8, !tbaa !4
  %15 = icmp eq ptr %14, null
  br i1 %15, label %16, label %17

16:                                               ; preds = %1
  store ptr null, ptr %2, align 8
  store i32 1, ptr %9, align 4
  br label %168

17:                                               ; preds = %1
  %18 = load ptr, ptr %4, align 8, !tbaa !4
  %19 = getelementptr inbounds nuw %struct.archive_entry, ptr %18, i32 0, i32 3
  %20 = load ptr, ptr %3, align 8, !tbaa !4
  %21 = getelementptr inbounds nuw %struct.archive_entry, ptr %20, i32 0, i32 3
  call void @llvm.memcpy.p0.p0.i64(ptr align 8 %19, ptr align 8 %21, i64 168, i1 false), !tbaa.struct !31
  %22 = load ptr, ptr %3, align 8, !tbaa !4
  %23 = getelementptr inbounds nuw %struct.archive_entry, ptr %22, i32 0, i32 6
  %24 = load i64, ptr %23, align 8, !tbaa !33
  %25 = load ptr, ptr %4, align 8, !tbaa !4
  %26 = getelementptr inbounds nuw %struct.archive_entry, ptr %25, i32 0, i32 6
  store i64 %24, ptr %26, align 8, !tbaa !33
  %27 = load ptr, ptr %3, align 8, !tbaa !4
  %28 = getelementptr inbounds nuw %struct.archive_entry, ptr %27, i32 0, i32 7
  %29 = load i64, ptr %28, align 8, !tbaa !34
  %30 = load ptr, ptr %4, align 8, !tbaa !4
  %31 = getelementptr inbounds nuw %struct.archive_entry, ptr %30, i32 0, i32 7
  store i64 %29, ptr %31, align 8, !tbaa !34
  %32 = load ptr, ptr %4, align 8, !tbaa !4
  %33 = getelementptr inbounds nuw %struct.archive_entry, ptr %32, i32 0, i32 5
  %34 = load ptr, ptr %3, align 8, !tbaa !4
  %35 = getelementptr inbounds nuw %struct.archive_entry, ptr %34, i32 0, i32 5
  call void @archive_mstring_copy(ptr noundef %33, ptr noundef %35)
  %36 = load ptr, ptr %4, align 8, !tbaa !4
  %37 = getelementptr inbounds nuw %struct.archive_entry, ptr %36, i32 0, i32 8
  %38 = load ptr, ptr %3, align 8, !tbaa !4
  %39 = getelementptr inbounds nuw %struct.archive_entry, ptr %38, i32 0, i32 8
  call void @archive_mstring_copy(ptr noundef %37, ptr noundef %39)
  %40 = load ptr, ptr %4, align 8, !tbaa !4
  %41 = getelementptr inbounds nuw %struct.archive_entry, ptr %40, i32 0, i32 9
  %42 = load ptr, ptr %3, align 8, !tbaa !4
  %43 = getelementptr inbounds nuw %struct.archive_entry, ptr %42, i32 0, i32 9
  call void @archive_mstring_copy(ptr noundef %41, ptr noundef %43)
  %44 = load ptr, ptr %4, align 8, !tbaa !4
  %45 = getelementptr inbounds nuw %struct.archive_entry, ptr %44, i32 0, i32 10
  %46 = load ptr, ptr %3, align 8, !tbaa !4
  %47 = getelementptr inbounds nuw %struct.archive_entry, ptr %46, i32 0, i32 10
  call void @archive_mstring_copy(ptr noundef %45, ptr noundef %47)
  %48 = load ptr, ptr %4, align 8, !tbaa !4
  %49 = getelementptr inbounds nuw %struct.archive_entry, ptr %48, i32 0, i32 12
  %50 = load ptr, ptr %3, align 8, !tbaa !4
  %51 = getelementptr inbounds nuw %struct.archive_entry, ptr %50, i32 0, i32 12
  call void @archive_mstring_copy(ptr noundef %49, ptr noundef %51)
  %52 = load ptr, ptr %3, align 8, !tbaa !4
  %53 = getelementptr inbounds nuw %struct.archive_entry, ptr %52, i32 0, i32 4
  %54 = load i32, ptr %53, align 8, !tbaa !35
  %55 = load ptr, ptr %4, align 8, !tbaa !4
  %56 = getelementptr inbounds nuw %struct.archive_entry, ptr %55, i32 0, i32 4
  store i32 %54, ptr %56, align 8, !tbaa !35
  %57 = load ptr, ptr %4, align 8, !tbaa !4
  %58 = getelementptr inbounds nuw %struct.archive_entry, ptr %57, i32 0, i32 11
  %59 = load ptr, ptr %3, align 8, !tbaa !4
  %60 = getelementptr inbounds nuw %struct.archive_entry, ptr %59, i32 0, i32 11
  call void @archive_mstring_copy(ptr noundef %58, ptr noundef %60)
  %61 = load ptr, ptr %3, align 8, !tbaa !4
  %62 = getelementptr inbounds nuw %struct.archive_entry, ptr %61, i32 0, i32 24
  %63 = load i32, ptr %62, align 4, !tbaa !25
  %64 = load ptr, ptr %4, align 8, !tbaa !4
  %65 = getelementptr inbounds nuw %struct.archive_entry, ptr %64, i32 0, i32 24
  store i32 %63, ptr %65, align 4, !tbaa !25
  %66 = load ptr, ptr %3, align 8, !tbaa !4
  %67 = getelementptr inbounds nuw %struct.archive_entry, ptr %66, i32 0, i32 13
  %68 = load i8, ptr %67, align 8, !tbaa !36
  %69 = load ptr, ptr %4, align 8, !tbaa !4
  %70 = getelementptr inbounds nuw %struct.archive_entry, ptr %69, i32 0, i32 13
  store i8 %68, ptr %70, align 8, !tbaa !36
  %71 = load ptr, ptr %4, align 8, !tbaa !4
  %72 = getelementptr inbounds nuw %struct.archive_entry, ptr %71, i32 0, i32 16
  %73 = getelementptr inbounds nuw %struct.ae_digest, ptr %72, i32 0, i32 0
  %74 = getelementptr inbounds [16 x i8], ptr %73, i64 0, i64 0
  %75 = load ptr, ptr %3, align 8, !tbaa !4
  %76 = getelementptr inbounds nuw %struct.archive_entry, ptr %75, i32 0, i32 16
  %77 = getelementptr inbounds nuw %struct.ae_digest, ptr %76, i32 0, i32 0
  %78 = getelementptr inbounds [16 x i8], ptr %77, i64 0, i64 0
  call void @llvm.memcpy.p0.p0.i64(ptr align 8 %74, ptr align 8 %78, i64 16, i1 false)
  %79 = load ptr, ptr %4, align 8, !tbaa !4
  %80 = getelementptr inbounds nuw %struct.archive_entry, ptr %79, i32 0, i32 16
  %81 = getelementptr inbounds nuw %struct.ae_digest, ptr %80, i32 0, i32 1
  %82 = getelementptr inbounds [20 x i8], ptr %81, i64 0, i64 0
  %83 = load ptr, ptr %3, align 8, !tbaa !4
  %84 = getelementptr inbounds nuw %struct.archive_entry, ptr %83, i32 0, i32 16
  %85 = getelementptr inbounds nuw %struct.ae_digest, ptr %84, i32 0, i32 1
  %86 = getelementptr inbounds [20 x i8], ptr %85, i64 0, i64 0
  call void @llvm.memcpy.p0.p0.i64(ptr align 8 %82, ptr align 8 %86, i64 20, i1 false)
  %87 = load ptr, ptr %4, align 8, !tbaa !4
  %88 = getelementptr inbounds nuw %struct.archive_entry, ptr %87, i32 0, i32 16
  %89 = getelementptr inbounds nuw %struct.ae_digest, ptr %88, i32 0, i32 2
  %90 = getelementptr inbounds [20 x i8], ptr %89, i64 0, i64 0
  %91 = load ptr, ptr %3, align 8, !tbaa !4
  %92 = getelementptr inbounds nuw %struct.archive_entry, ptr %91, i32 0, i32 16
  %93 = getelementptr inbounds nuw %struct.ae_digest, ptr %92, i32 0, i32 2
  %94 = getelementptr inbounds [20 x i8], ptr %93, i64 0, i64 0
  call void @llvm.memcpy.p0.p0.i64(ptr align 4 %90, ptr align 4 %94, i64 20, i1 false)
  %95 = load ptr, ptr %4, align 8, !tbaa !4
  %96 = getelementptr inbounds nuw %struct.archive_entry, ptr %95, i32 0, i32 16
  %97 = getelementptr inbounds nuw %struct.ae_digest, ptr %96, i32 0, i32 3
  %98 = getelementptr inbounds [32 x i8], ptr %97, i64 0, i64 0
  %99 = load ptr, ptr %3, align 8, !tbaa !4
  %100 = getelementptr inbounds nuw %struct.archive_entry, ptr %99, i32 0, i32 16
  %101 = getelementptr inbounds nuw %struct.ae_digest, ptr %100, i32 0, i32 3
  %102 = getelementptr inbounds [32 x i8], ptr %101, i64 0, i64 0
  call void @llvm.memcpy.p0.p0.i64(ptr align 8 %98, ptr align 8 %102, i64 32, i1 false)
  %103 = load ptr, ptr %4, align 8, !tbaa !4
  %104 = getelementptr inbounds nuw %struct.archive_entry, ptr %103, i32 0, i32 16
  %105 = getelementptr inbounds nuw %struct.ae_digest, ptr %104, i32 0, i32 4
  %106 = getelementptr inbounds [48 x i8], ptr %105, i64 0, i64 0
  %107 = load ptr, ptr %3, align 8, !tbaa !4
  %108 = getelementptr inbounds nuw %struct.archive_entry, ptr %107, i32 0, i32 16
  %109 = getelementptr inbounds nuw %struct.ae_digest, ptr %108, i32 0, i32 4
  %110 = getelementptr inbounds [48 x i8], ptr %109, i64 0, i64 0
  call void @llvm.memcpy.p0.p0.i64(ptr align 8 %106, ptr align 8 %110, i64 48, i1 false)
  %111 = load ptr, ptr %4, align 8, !tbaa !4
  %112 = getelementptr inbounds nuw %struct.archive_entry, ptr %111, i32 0, i32 16
  %113 = getelementptr inbounds nuw %struct.ae_digest, ptr %112, i32 0, i32 5
  %114 = getelementptr inbounds [64 x i8], ptr %113, i64 0, i64 0
  %115 = load ptr, ptr %3, align 8, !tbaa !4
  %116 = getelementptr inbounds nuw %struct.archive_entry, ptr %115, i32 0, i32 16
  %117 = getelementptr inbounds nuw %struct.ae_digest, ptr %116, i32 0, i32 5
  %118 = getelementptr inbounds [64 x i8], ptr %117, i64 0, i64 0
  call void @llvm.memcpy.p0.p0.i64(ptr align 8 %114, ptr align 8 %118, i64 64, i1 false)
  %119 = load ptr, ptr %4, align 8, !tbaa !4
  %120 = getelementptr inbounds nuw %struct.archive_entry, ptr %119, i32 0, i32 17
  %121 = load ptr, ptr %3, align 8, !tbaa !4
  %122 = getelementptr inbounds nuw %struct.archive_entry, ptr %121, i32 0, i32 17
  call void @archive_acl_copy(ptr noundef %120, ptr noundef %122)
  %123 = load ptr, ptr %3, align 8, !tbaa !4
  %124 = call ptr @archive_entry_mac_metadata(ptr noundef %123, ptr noundef %7)
  store ptr %124, ptr %8, align 8, !tbaa !26
  %125 = load ptr, ptr %4, align 8, !tbaa !4
  %126 = load ptr, ptr %8, align 8, !tbaa !26
  %127 = load i64, ptr %7, align 8, !tbaa !27
  call void @archive_entry_copy_mac_metadata(ptr noundef %125, ptr noundef %126, i64 noundef %127)
  %128 = load ptr, ptr %3, align 8, !tbaa !4
  %129 = getelementptr inbounds nuw %struct.archive_entry, ptr %128, i32 0, i32 18
  %130 = load ptr, ptr %129, align 8, !tbaa !37
  store ptr %130, ptr %5, align 8, !tbaa !38
  br label %131

131:                                              ; preds = %134, %17
  %132 = load ptr, ptr %5, align 8, !tbaa !38
  %133 = icmp ne ptr %132, null
  br i1 %133, label %134, label %148

134:                                              ; preds = %131
  %135 = load ptr, ptr %4, align 8, !tbaa !4
  %136 = load ptr, ptr %5, align 8, !tbaa !38
  %137 = getelementptr inbounds nuw %struct.ae_xattr, ptr %136, i32 0, i32 1
  %138 = load ptr, ptr %137, align 8, !tbaa !39
  %139 = load ptr, ptr %5, align 8, !tbaa !38
  %140 = getelementptr inbounds nuw %struct.ae_xattr, ptr %139, i32 0, i32 2
  %141 = load ptr, ptr %140, align 8, !tbaa !41
  %142 = load ptr, ptr %5, align 8, !tbaa !38
  %143 = getelementptr inbounds nuw %struct.ae_xattr, ptr %142, i32 0, i32 3
  %144 = load i64, ptr %143, align 8, !tbaa !42
  call void @archive_entry_xattr_add_entry(ptr noundef %135, ptr noundef %138, ptr noundef %141, i64 noundef %144)
  %145 = load ptr, ptr %5, align 8, !tbaa !38
  %146 = getelementptr inbounds nuw %struct.ae_xattr, ptr %145, i32 0, i32 0
  %147 = load ptr, ptr %146, align 8, !tbaa !43
  store ptr %147, ptr %5, align 8, !tbaa !38
  br label %131, !llvm.loop !44

148:                                              ; preds = %131
  %149 = load ptr, ptr %3, align 8, !tbaa !4
  %150 = getelementptr inbounds nuw %struct.archive_entry, ptr %149, i32 0, i32 20
  %151 = load ptr, ptr %150, align 8, !tbaa !46
  store ptr %151, ptr %6, align 8, !tbaa !47
  br label %152

152:                                              ; preds = %155, %148
  %153 = load ptr, ptr %6, align 8, !tbaa !47
  %154 = icmp ne ptr %153, null
  br i1 %154, label %155, label %166

155:                                              ; preds = %152
  %156 = load ptr, ptr %4, align 8, !tbaa !4
  %157 = load ptr, ptr %6, align 8, !tbaa !47
  %158 = getelementptr inbounds nuw %struct.ae_sparse, ptr %157, i32 0, i32 1
  %159 = load i64, ptr %158, align 8, !tbaa !48
  %160 = load ptr, ptr %6, align 8, !tbaa !47
  %161 = getelementptr inbounds nuw %struct.ae_sparse, ptr %160, i32 0, i32 2
  %162 = load i64, ptr %161, align 8, !tbaa !50
  call void @archive_entry_sparse_add_entry(ptr noundef %156, i64 noundef %159, i64 noundef %162)
  %163 = load ptr, ptr %6, align 8, !tbaa !47
  %164 = getelementptr inbounds nuw %struct.ae_sparse, ptr %163, i32 0, i32 0
  %165 = load ptr, ptr %164, align 8, !tbaa !51
  store ptr %165, ptr %6, align 8, !tbaa !47
  br label %152, !llvm.loop !52

166:                                              ; preds = %152
  %167 = load ptr, ptr %4, align 8, !tbaa !4
  store ptr %167, ptr %2, align 8
  store i32 1, ptr %9, align 4
  br label %168

168:                                              ; preds = %166, %16
  call void @llvm.lifetime.end.p0(i64 8, ptr %8) #13
  call void @llvm.lifetime.end.p0(i64 8, ptr %7) #13
  call void @llvm.lifetime.end.p0(i64 8, ptr %6) #13
  call void @llvm.lifetime.end.p0(i64 8, ptr %5) #13
  call void @llvm.lifetime.end.p0(i64 8, ptr %4) #13
  %169 = load ptr, ptr %2, align 8
  ret ptr %169
}