; Function Attrs: nounwind uwtable
define dso_local noundef ptr @archive_entry_clone(ptr noundef %0) local_unnamed_addr #0 {
  %2 = load ptr, ptr %0, align 8, !tbaa !25
  %3 = tail call noalias dereferenceable_or_null(1176) ptr @calloc(i64 noundef 1, i64 noundef 1176) #24
  %4 = icmp eq ptr %3, null
  br i1 %4, label %archive_entry_new2.exit.thread, label %5

5:                                                ; preds = %1
  store ptr %2, ptr %3, align 8, !tbaa !25
  %6 = getelementptr inbounds nuw i8, ptr %3, i64 24
  %7 = getelementptr inbounds nuw i8, ptr %0, i64 24
  tail call void @llvm.memcpy.p0.p0.i64(ptr noundef nonnull align 8 dereferenceable(168) %6, ptr noundef nonnull align 8 dereferenceable(168) %7, i64 168, i1 false), !tbaa.struct !26
  %8 = getelementptr inbounds nuw i8, ptr %0, i64 304
  %9 = load i64, ptr %8, align 8, !tbaa !29
  %10 = getelementptr inbounds nuw i8, ptr %3, i64 304
  store i64 %9, ptr %10, align 8, !tbaa !29
  %11 = getelementptr inbounds nuw i8, ptr %0, i64 312
  %12 = load i64, ptr %11, align 8, !tbaa !30
  %13 = getelementptr inbounds nuw i8, ptr %3, i64 312
  store i64 %12, ptr %13, align 8, !tbaa !30
  %14 = getelementptr inbounds nuw i8, ptr %3, i64 200
  %15 = getelementptr inbounds nuw i8, ptr %0, i64 200
  tail call void @archive_mstring_copy(ptr noundef nonnull %14, ptr noundef nonnull %15) #21
  %16 = getelementptr inbounds nuw i8, ptr %3, i64 320
  %17 = getelementptr inbounds nuw i8, ptr %0, i64 320
  tail call void @archive_mstring_copy(ptr noundef nonnull %16, ptr noundef nonnull %17) #21
  %18 = getelementptr inbounds nuw i8, ptr %3, i64 424
  %19 = getelementptr inbounds nuw i8, ptr %0, i64 424
  tail call void @archive_mstring_copy(ptr noundef nonnull %18, ptr noundef nonnull %19) #21
  %20 = getelementptr inbounds nuw i8, ptr %3, i64 528
  %21 = getelementptr inbounds nuw i8, ptr %0, i64 528
  tail call void @archive_mstring_copy(ptr noundef nonnull %20, ptr noundef nonnull %21) #21
  %22 = getelementptr inbounds nuw i8, ptr %3, i64 736
  %23 = getelementptr inbounds nuw i8, ptr %0, i64 736
  tail call void @archive_mstring_copy(ptr noundef nonnull %22, ptr noundef nonnull %23) #21
  %24 = getelementptr inbounds nuw i8, ptr %0, i64 192
  %25 = load i32, ptr %24, align 8, !tbaa !31
  %26 = getelementptr inbounds nuw i8, ptr %3, i64 192
  store i32 %25, ptr %26, align 8, !tbaa !31
  %27 = getelementptr inbounds nuw i8, ptr %3, i64 632
  %28 = getelementptr inbounds nuw i8, ptr %0, i64 632
  tail call void @archive_mstring_copy(ptr noundef nonnull %27, ptr noundef nonnull %28) #21
  %29 = getelementptr inbounds nuw i8, ptr %0, i64 1172
  %30 = load i32, ptr %29, align 4, !tbaa !32
  %31 = getelementptr inbounds nuw i8, ptr %3, i64 1172
  store i32 %30, ptr %31, align 4, !tbaa !32
  %32 = getelementptr inbounds nuw i8, ptr %0, i64 840
  %33 = load i8, ptr %32, align 8, !tbaa !33
  %34 = getelementptr inbounds nuw i8, ptr %3, i64 840
  store i8 %33, ptr %34, align 8, !tbaa !33
  %35 = getelementptr inbounds nuw i8, ptr %3, i64 864
  %36 = getelementptr inbounds nuw i8, ptr %0, i64 864
  tail call void @llvm.memcpy.p0.p0.i64(ptr noundef nonnull align 8 dereferenceable(16) %35, ptr noundef nonnull align 8 dereferenceable(16) %36, i64 16, i1 false)
  %37 = getelementptr inbounds nuw i8, ptr %3, i64 880
  %38 = getelementptr inbounds nuw i8, ptr %0, i64 880
  tail call void @llvm.memcpy.p0.p0.i64(ptr noundef nonnull align 8 dereferenceable(20) %37, ptr noundef nonnull align 8 dereferenceable(20) %38, i64 20, i1 false)
  %39 = getelementptr inbounds nuw i8, ptr %3, i64 900
  %40 = getelementptr inbounds nuw i8, ptr %0, i64 900
  tail call void @llvm.memcpy.p0.p0.i64(ptr noundef nonnull align 4 dereferenceable(20) %39, ptr noundef nonnull align 4 dereferenceable(20) %40, i64 20, i1 false)
  %41 = getelementptr inbounds nuw i8, ptr %3, i64 920
  %42 = getelementptr inbounds nuw i8, ptr %0, i64 920
  tail call void @llvm.memcpy.p0.p0.i64(ptr noundef nonnull align 8 dereferenceable(32) %41, ptr noundef nonnull align 8 dereferenceable(32) %42, i64 32, i1 false)
  %43 = getelementptr inbounds nuw i8, ptr %3, i64 952
  %44 = getelementptr inbounds nuw i8, ptr %0, i64 952
  tail call void @llvm.memcpy.p0.p0.i64(ptr noundef nonnull align 8 dereferenceable(48) %43, ptr noundef nonnull align 8 dereferenceable(48) %44, i64 48, i1 false)
  %45 = getelementptr inbounds nuw i8, ptr %3, i64 1000
  %46 = getelementptr inbounds nuw i8, ptr %0, i64 1000
  tail call void @llvm.memcpy.p0.p0.i64(ptr noundef nonnull align 8 dereferenceable(64) %45, ptr noundef nonnull align 8 dereferenceable(64) %46, i64 64, i1 false)
  %47 = getelementptr inbounds nuw i8, ptr %3, i64 1064
  %48 = getelementptr inbounds nuw i8, ptr %0, i64 1064
  tail call void @archive_acl_copy(ptr noundef nonnull %47, ptr noundef nonnull %48) #21
  %49 = getelementptr inbounds nuw i8, ptr %0, i64 856
  %50 = load i64, ptr %49, align 8, !tbaa !24
  %51 = getelementptr inbounds nuw i8, ptr %0, i64 848
  %52 = load ptr, ptr %51, align 8, !tbaa !4
  %53 = getelementptr inbounds nuw i8, ptr %3, i64 848
  %54 = load ptr, ptr %53, align 8, !tbaa !4
  tail call void @free(ptr noundef %54) #21
  %55 = icmp eq ptr %52, null
  %56 = icmp eq i64 %50, 0
  %or.cond.i = or i1 %56, %55
  br i1 %or.cond.i, label %57, label %58

57:                                               ; preds = %5
  tail call void @llvm.memset.p0.i64(ptr noundef nonnull align 8 dereferenceable(16) %53, i8 0, i64 16, i1 false)
  br label %archive_entry_copy_mac_metadata.exit

58:                                               ; preds = %5
  %59 = getelementptr inbounds nuw i8, ptr %3, i64 856
  store i64 %50, ptr %59, align 8, !tbaa !24
  %60 = tail call noalias ptr @malloc(i64 noundef %50) #22
  store ptr %60, ptr %53, align 8, !tbaa !4
  %61 = icmp eq ptr %60, null
  br i1 %61, label %62, label %63

62:                                               ; preds = %58
  tail call void @abort() #23
  unreachable

63:                                               ; preds = %58
  tail call void @llvm.memcpy.p0.p0.i64(ptr nonnull align 1 %60, ptr nonnull readonly align 1 %52, i64 %50, i1 false)
  br label %archive_entry_copy_mac_metadata.exit

archive_entry_copy_mac_metadata.exit:             ; preds = %57, %63
  %64 = getelementptr inbounds nuw i8, ptr %0, i64 1120
  %.05962 = load ptr, ptr %64, align 8, !tbaa !34
  %.not63 = icmp eq ptr %.05962, null
  br i1 %.not63, label %._crit_edge, label %.lr.ph

.lr.ph:                                           ; preds = %archive_entry_copy_mac_metadata.exit, %.lr.ph
  %.05964 = phi ptr [ %.059, %.lr.ph ], [ %.05962, %archive_entry_copy_mac_metadata.exit ]
  %65 = getelementptr inbounds nuw i8, ptr %.05964, i64 8
  %66 = load ptr, ptr %65, align 8, !tbaa !35
  %67 = getelementptr inbounds nuw i8, ptr %.05964, i64 16
  %68 = load ptr, ptr %67, align 8, !tbaa !37
  %69 = getelementptr inbounds nuw i8, ptr %.05964, i64 24
  %70 = load i64, ptr %69, align 8, !tbaa !38
  tail call void @archive_entry_xattr_add_entry(ptr noundef %3, ptr noundef %66, ptr noundef %68, i64 noundef %70) #21
  %.059 = load ptr, ptr %.05964, align 8, !tbaa !34
  %.not = icmp eq ptr %.059, null
  br i1 %.not, label %._crit_edge, label %.lr.ph, !llvm.loop !39

._crit_edge:                                      ; preds = %.lr.ph, %archive_entry_copy_mac_metadata.exit
  %71 = getelementptr inbounds nuw i8, ptr %0, i64 1136
  %.05865 = load ptr, ptr %71, align 8, !tbaa !41
  %.not6166 = icmp eq ptr %.05865, null
  br i1 %.not6166, label %archive_entry_new2.exit.thread, label %.lr.ph69

.lr.ph69:                                         ; preds = %._crit_edge, %.lr.ph69
  %.05867 = phi ptr [ %.058, %.lr.ph69 ], [ %.05865, %._crit_edge ]
  %72 = getelementptr inbounds nuw i8, ptr %.05867, i64 8
  %73 = load i64, ptr %72, align 8, !tbaa !42
  %74 = getelementptr inbounds nuw i8, ptr %.05867, i64 16
  %75 = load i64, ptr %74, align 8, !tbaa !44
  tail call void @archive_entry_sparse_add_entry(ptr noundef %3, i64 noundef %73, i64 noundef %75) #21
  %.058 = load ptr, ptr %.05867, align 8, !tbaa !41
  %.not61 = icmp eq ptr %.058, null
  br i1 %.not61, label %archive_entry_new2.exit.thread, label %.lr.ph69, !llvm.loop !45

archive_entry_new2.exit.thread:                   ; preds = %.lr.ph69, %._crit_edge, %1
  ret ptr %3
}